; Function Attrs: nounwind uwtable
define dso_local void @loadingAbsProgress(i64 noundef %0) local_unnamed_addr #0 {
  store i64 %0, ptr getelementptr inbounds nuw (i8, ptr @server, i64 2440), align 8, !tbaa !5
  %2 = load i64, ptr getelementptr inbounds nuw (i8, ptr @server, i64 2640), align 8, !tbaa !229
  %3 = tail call i64 @zmalloc_used_memory() #23
  %4 = icmp ult i64 %2, %3
  br i1 %4, label %5, label %7

5:                                                ; preds = %1
  %6 = tail call i64 @zmalloc_used_memory() #23
  store i64 %6, ptr getelementptr inbounds nuw (i8, ptr @server, i64 2640), align 8, !tbaa !229
  br label %7

7:                                                ; preds = %5, %1
  ret void
}